target datalayout = "e-m:e-p270:32:32-p271:32:32-p272:64:64-i64:64-i128:128-f80:128-n8:16:32:64-S128"
target triple = "x86_64-pc-linux-gnu"

%struct.H5UC_t = type { ptr, i64, ptr }
%struct.H5B_shared_t = type { ptr, i32, i64, i64, i64, i64, i64, ptr, ptr, ptr }
%struct.H5B_t = type { %struct.H5C_cache_entry_t, ptr, i32, i32, i64, i64, ptr, ptr }
%struct.H5C_cache_entry_t = type { ptr, i64, i64, ptr, i8, ptr, i8, i8, i8, i8, i32, i8, i8, i8, i8, i8, i32, ptr, i32, i32, i32, i32, i32, i8, i8, ptr, ptr, ptr, ptr, ptr, ptr, i8, i32, i8, i64, ptr, i64, i64, i32, i8, i32, i32, i8, ptr, ptr, ptr }

; Function Attrs: nounwind uwtable
define internal i32 @H5B__cache_image_len(ptr noundef %0, ptr noundef %1) #0 {
  %3 = alloca ptr, align 8
  %4 = alloca ptr, align 8
  %5 = alloca ptr, align 8
  %6 = alloca ptr, align 8
  store ptr %0, ptr %3, align 8
  store ptr %1, ptr %4, align 8
  %7 = load ptr, ptr %3, align 8
  store ptr %7, ptr %5, align 8
  %8 = load ptr, ptr %5, align 8
  %9 = getelementptr inbounds %struct.H5B_t, ptr %8, i32 0, i32 1
  %10 = load ptr, ptr %9, align 8
  %11 = getelementptr inbounds %struct.H5UC_t, ptr %10, i32 0, i32 0
  %12 = load ptr, ptr %11, align 8
  store ptr %12, ptr %6, align 8
  %13 = load ptr, ptr %6, align 8
  %14 = getelementptr inbounds %struct.H5B_shared_t, ptr %13, i32 0, i32 3
  %15 = load i64, ptr %14, align 8
  %16 = load ptr, ptr %4, align 8
  store i64 %15, ptr %16, align 8
  ret i32 0
}